target datalayout = "e-m:e-p270:32:32-p271:32:32-p272:64:64-i64:64-i128:128-f80:128-n8:16:32:64-S128"
target triple = "x86_64-pc-linux-gnu"

%"struct.benchmark::LeastSq" = type <{ double, double, i32, [4 x i8] }>
%"struct.std::_Vector_base" = type { %"struct.std::_Vector_base<long, std::allocator<long>>::_Vector_impl" }
%"struct.std::_Vector_base<long, std::allocator<long>>::_Vector_impl" = type { %"struct.std::_Vector_base<long, std::allocator<long>>::_Vector_impl_data" }
%"struct.std::_Vector_base<long, std::allocator<long>>::_Vector_impl_data" = type { ptr, ptr, ptr }
%"struct.std::_Vector_base.14" = type { %"struct.std::_Vector_base<double, std::allocator<double>>::_Vector_impl" }
%"struct.std::_Vector_base<double, std::allocator<double>>::_Vector_impl" = type { %"struct.std::_Vector_base<double, std::allocator<double>>::_Vector_impl_data" }
%"struct.std::_Vector_base<double, std::allocator<double>>::_Vector_impl_data" = type { ptr, ptr, ptr }

; Function Attrs: inlinehint mustprogress nounwind uwtable
define linkonce_odr noundef double @_ZSt3powIdiEN9__gnu_cxx9__promoteIDTplcvNS1_IT_Xsr3std12__is_integerIS2_EE7__valueEE6__typeELi0EcvNS1_IT0_Xsr3std12__is_integerIS5_EE7__valueEE6__typeELi0EEXsr3std12__is_integerIS8_EE7__valueEE6__typeES2_S5_(double noundef %0, i32 noundef %1) #6 comdat {
  %3 = alloca double, align 8
  %4 = alloca i32, align 4
  store double %0, ptr %3, align 8, !tbaa !23
  store i32 %1, ptr %4, align 4, !tbaa !3
  %5 = load double, ptr %3, align 8, !tbaa !23
  %6 = load i32, ptr %4, align 4, !tbaa !3
  %7 = sitofp i32 %6 to double
  %8 = call double @pow(double noundef %5, double noundef %7) #3, !tbaa !3
  ret double %8
}

; Function Attrs: mustprogress nounwind uwtable
define linkonce_odr hidden void @_ZN9benchmark7LeastSqC2Ev(ptr noundef nonnull align 8 dereferenceable(20) %0) unnamed_addr #4 comdat align 2 {
  %2 = alloca ptr, align 8
  store ptr %0, ptr %2, align 8, !tbaa !41
  %3 = load ptr, ptr %2, align 8
  %4 = getelementptr inbounds nuw %"struct.benchmark::LeastSq", ptr %3, i32 0, i32 0
  store double 0.000000e+00, ptr %4, align 8, !tbaa !31
  %5 = getelementptr inbounds nuw %"struct.benchmark::LeastSq", ptr %3, i32 0, i32 1
  store double 0.000000e+00, ptr %5, align 8, !tbaa !33
  %6 = getelementptr inbounds nuw %"struct.benchmark::LeastSq", ptr %3, i32 0, i32 2
  store i32 0, ptr %6, align 8, !tbaa !29
  ret void
}

; Function Attrs: mustprogress nounwind uwtable
define linkonce_odr hidden noundef nonnull align 8 dereferenceable(8) ptr @_ZNKSt6vectorIdSaIdEEixEm(ptr noundef nonnull align 8 dereferenceable(24) %0, i64 noundef %1) #4 comdat align 2 {
  %3 = alloca ptr, align 8
  %4 = alloca i64, align 8
  store ptr %0, ptr %3, align 8, !tbaa !21
  store i64 %1, ptr %4, align 8, !tbaa !25
  %5 = load ptr, ptr %3, align 8
  %6 = getelementptr inbounds nuw %"struct.std::_Vector_base.14", ptr %5, i32 0, i32 0
  %7 = getelementptr inbounds nuw %"struct.std::_Vector_base<double, std::allocator<double>>::_Vector_impl_data", ptr %6, i32 0, i32 0
  %8 = load ptr, ptr %7, align 8, !tbaa !38
  %9 = load i64, ptr %4, align 8, !tbaa !25
  %10 = getelementptr inbounds nuw double, ptr %8, i64 %9
  ret ptr %10
}

; Function Attrs: mustprogress nounwind uwtable
define linkonce_odr hidden noundef nonnull align 8 dereferenceable(8) ptr @_ZNKSt6vectorIlSaIlEEixEm(ptr noundef nonnull align 8 dereferenceable(24) %0, i64 noundef %1) #4 comdat align 2 {
  %3 = alloca ptr, align 8
  %4 = alloca i64, align 8
  store ptr %0, ptr %3, align 8, !tbaa !19
  store i64 %1, ptr %4, align 8, !tbaa !25
  %5 = load ptr, ptr %3, align 8
  %6 = getelementptr inbounds nuw %"struct.std::_Vector_base", ptr %5, i32 0, i32 0
  %7 = getelementptr inbounds nuw %"struct.std::_Vector_base<long, std::allocator<long>>::_Vector_impl_data", ptr %6, i32 0, i32 0
  %8 = load ptr, ptr %7, align 8, !tbaa !37
  %9 = load i64, ptr %4, align 8, !tbaa !25
  %10 = getelementptr inbounds nuw i64, ptr %8, i64 %9
  ret ptr %10
}

; Function Attrs: mustprogress nounwind uwtable
define linkonce_odr hidden noundef i64 @_ZNKSt6vectorIlSaIlEE4sizeEv(ptr noundef nonnull align 8 dereferenceable(24) %0) #4 comdat align 2 {
  %2 = alloca ptr, align 8
  store ptr %0, ptr %2, align 8, !tbaa !19
  %3 = load ptr, ptr %2, align 8
  %4 = getelementptr inbounds nuw %"struct.std::_Vector_base", ptr %3, i32 0, i32 0
  %5 = getelementptr inbounds nuw %"struct.std::_Vector_base<long, std::allocator<long>>::_Vector_impl_data", ptr %4, i32 0, i32 1
  %6 = load ptr, ptr %5, align 8, !tbaa !34
  %7 = getelementptr inbounds nuw %"struct.std::_Vector_base", ptr %3, i32 0, i32 0
  %8 = getelementptr inbounds nuw %"struct.std::_Vector_base<long, std::allocator<long>>::_Vector_impl_data", ptr %7, i32 0, i32 0
  %9 = load ptr, ptr %8, align 8, !tbaa !37
  %10 = ptrtoint ptr %6 to i64
  %11 = ptrtoint ptr %9 to i64
  %12 = sub i64 %10, %11
  %13 = sdiv exact i64 %12, 8
  ret i64 %13
}

; Function Attrs: mustprogress uwtable
define hidden void @_ZN9benchmark14MinimalLeastSqERKSt6vectorIlSaIlEERKS0_IdSaIdEEPFdlE(ptr dead_on_unwind noalias writable sret(%"struct.benchmark::LeastSq") align 8 %0, ptr noundef nonnull align 8 dereferenceable(24) %1, ptr noundef nonnull align 8 dereferenceable(24) %2, ptr noundef %3) #7 {
  %5 = alloca ptr, align 8
  %6 = alloca ptr, align 8
  %7 = alloca ptr, align 8
  %8 = alloca double, align 8
  %9 = alloca double, align 8
  %10 = alloca double, align 8
  %11 = alloca i64, align 8
  %12 = alloca double, align 8
  %13 = alloca double, align 8
  %14 = alloca i64, align 8
  %15 = alloca double, align 8
  %16 = alloca double, align 8
  store ptr %1, ptr %5, align 8, !tbaa !19
  store ptr %2, ptr %6, align 8, !tbaa !21
  store ptr %3, ptr %7, align 8, !tbaa !9
  call void @llvm.lifetime.start.p0(i64 8, ptr %8) #3
  store double 0.000000e+00, ptr %8, align 8, !tbaa !23
  call void @llvm.lifetime.start.p0(i64 8, ptr %9) #3
  store double 0.000000e+00, ptr %9, align 8, !tbaa !23
  call void @llvm.lifetime.start.p0(i64 8, ptr %10) #3
  store double 0.000000e+00, ptr %10, align 8, !tbaa !23
  call void @llvm.lifetime.start.p0(i64 8, ptr %11) #3
  store i64 0, ptr %11, align 8, !tbaa !25
  br label %17

17:                                               ; preds = %47, %4
  %18 = load i64, ptr %11, align 8, !tbaa !25
  %19 = load ptr, ptr %5, align 8, !tbaa !19
  %20 = call noundef i64 @_ZNKSt6vectorIlSaIlEE4sizeEv(ptr noundef nonnull align 8 dereferenceable(24) %19) #3
  %21 = icmp ult i64 %18, %20
  br i1 %21, label %23, label %22

22:                                               ; preds = %17
  call void @llvm.lifetime.end.p0(i64 8, ptr %11) #3
  br label %50

23:                                               ; preds = %17
  call void @llvm.lifetime.start.p0(i64 8, ptr %12) #3
  %24 = load ptr, ptr %7, align 8, !tbaa !9
  %25 = load ptr, ptr %5, align 8, !tbaa !19
  %26 = load i64, ptr %11, align 8, !tbaa !25
  %27 = call noundef nonnull align 8 dereferenceable(8) ptr @_ZNKSt6vectorIlSaIlEEixEm(ptr noundef nonnull align 8 dereferenceable(24) %25, i64 noundef %26) #3
  %28 = load i64, ptr %27, align 8, !tbaa !25
  %29 = call noundef double %24(i64 noundef %28)
  store double %29, ptr %12, align 8, !tbaa !23
  %30 = load double, ptr %12, align 8, !tbaa !23
  %31 = load double, ptr %12, align 8, !tbaa !23
  %32 = load double, ptr %8, align 8, !tbaa !23
  %33 = call double @llvm.fmuladd.f64(double %30, double %31, double %32)
  store double %33, ptr %8, align 8, !tbaa !23
  %34 = load ptr, ptr %6, align 8, !tbaa !21
  %35 = load i64, ptr %11, align 8, !tbaa !25
  %36 = call noundef nonnull align 8 dereferenceable(8) ptr @_ZNKSt6vectorIdSaIdEEixEm(ptr noundef nonnull align 8 dereferenceable(24) %34, i64 noundef %35) #3
  %37 = load double, ptr %36, align 8, !tbaa !23
  %38 = load double, ptr %9, align 8, !tbaa !23
  %39 = fadd double %38, %37
  store double %39, ptr %9, align 8, !tbaa !23
  %40 = load ptr, ptr %6, align 8, !tbaa !21
  %41 = load i64, ptr %11, align 8, !tbaa !25
  %42 = call noundef nonnull align 8 dereferenceable(8) ptr @_ZNKSt6vectorIdSaIdEEixEm(ptr noundef nonnull align 8 dereferenceable(24) %40, i64 noundef %41) #3
  %43 = load double, ptr %42, align 8, !tbaa !23
  %44 = load double, ptr %12, align 8, !tbaa !23
  %45 = load double, ptr %10, align 8, !tbaa !23
  %46 = call double @llvm.fmuladd.f64(double %43, double %44, double %45)
  store double %46, ptr %10, align 8, !tbaa !23
  call void @llvm.lifetime.end.p0(i64 8, ptr %12) #3
  br label %47

47:                                               ; preds = %23
  %48 = load i64, ptr %11, align 8, !tbaa !25
  %49 = add i64 %48, 1
  store i64 %49, ptr %11, align 8, !tbaa !25
  br label %17, !llvm.loop !27

50:                                               ; preds = %22
  call void @_ZN9benchmark7LeastSqC2Ev(ptr noundef nonnull align 8 dereferenceable(20) %0)
  %51 = getelementptr inbounds nuw %"struct.benchmark::LeastSq", ptr %0, i32 0, i32 2
  store i32 8, ptr %51, align 8, !tbaa !29
  %52 = load double, ptr %10, align 8, !tbaa !23
  %53 = load double, ptr %8, align 8, !tbaa !23
  %54 = fdiv double %52, %53
  %55 = getelementptr inbounds nuw %"struct.benchmark::LeastSq", ptr %0, i32 0, i32 0
  store double %54, ptr %55, align 8, !tbaa !31
  call void @llvm.lifetime.start.p0(i64 8, ptr %13) #3
  store double 0.000000e+00, ptr %13, align 8, !tbaa !23
  call void @llvm.lifetime.start.p0(i64 8, ptr %14) #3
  store i64 0, ptr %14, align 8, !tbaa !25
  br label %56

56:                                               ; preds = %81, %50
  %57 = load i64, ptr %14, align 8, !tbaa !25
  %58 = load ptr, ptr %5, align 8, !tbaa !19
  %59 = call noundef i64 @_ZNKSt6vectorIlSaIlEE4sizeEv(ptr noundef nonnull align 8 dereferenceable(24) %58) #3
  %60 = icmp ult i64 %57, %59
  br i1 %60, label %62, label %61

61:                                               ; preds = %56
  call void @llvm.lifetime.end.p0(i64 8, ptr %14) #3
  br label %84

62:                                               ; preds = %56
  call void @llvm.lifetime.start.p0(i64 8, ptr %15) #3
  %63 = getelementptr inbounds nuw %"struct.benchmark::LeastSq", ptr %0, i32 0, i32 0
  %64 = load double, ptr %63, align 8, !tbaa !31
  %65 = load ptr, ptr %7, align 8, !tbaa !9
  %66 = load ptr, ptr %5, align 8, !tbaa !19
  %67 = load i64, ptr %14, align 8, !tbaa !25
  %68 = call noundef nonnull align 8 dereferenceable(8) ptr @_ZNKSt6vectorIlSaIlEEixEm(ptr noundef nonnull align 8 dereferenceable(24) %66, i64 noundef %67) #3
  %69 = load i64, ptr %68, align 8, !tbaa !25
  %70 = call noundef double %65(i64 noundef %69)
  %71 = fmul double %64, %70
  store double %71, ptr %15, align 8, !tbaa !23
  %72 = load ptr, ptr %6, align 8, !tbaa !21
  %73 = load i64, ptr %14, align 8, !tbaa !25
  %74 = call noundef nonnull align 8 dereferenceable(8) ptr @_ZNKSt6vectorIdSaIdEEixEm(ptr noundef nonnull align 8 dereferenceable(24) %72, i64 noundef %73) #3
  %75 = load double, ptr %74, align 8, !tbaa !23
  %76 = load double, ptr %15, align 8, !tbaa !23
  %77 = fsub double %75, %76
  %78 = call noundef double @_ZSt3powIdiEN9__gnu_cxx9__promoteIDTplcvNS1_IT_Xsr3std12__is_integerIS2_EE7__valueEE6__typeELi0EcvNS1_IT0_Xsr3std12__is_integerIS5_EE7__valueEE6__typeELi0EEXsr3std12__is_integerIS8_EE7__valueEE6__typeES2_S5_(double noundef %77, i32 noundef 2)
  %79 = load double, ptr %13, align 8, !tbaa !23
  %80 = fadd double %79, %78
  store double %80, ptr %13, align 8, !tbaa !23
  call void @llvm.lifetime.end.p0(i64 8, ptr %15) #3
  br label %81

81:                                               ; preds = %62
  %82 = load i64, ptr %14, align 8, !tbaa !25
  %83 = add i64 %82, 1
  store i64 %83, ptr %14, align 8, !tbaa !25
  br label %56, !llvm.loop !32

84:                                               ; preds = %61
  call void @llvm.lifetime.start.p0(i64 8, ptr %16) #3
  %85 = load double, ptr %9, align 8, !tbaa !23
  %86 = load ptr, ptr %5, align 8, !tbaa !19
  %87 = call noundef i64 @_ZNKSt6vectorIlSaIlEE4sizeEv(ptr noundef nonnull align 8 dereferenceable(24) %86) #3
  %88 = uitofp i64 %87 to double
  %89 = fdiv double %85, %88
  store double %89, ptr %16, align 8, !tbaa !23
  %90 = load double, ptr %13, align 8, !tbaa !23
  %91 = load ptr, ptr %5, align 8, !tbaa !19
  %92 = call noundef i64 @_ZNKSt6vectorIlSaIlEE4sizeEv(ptr noundef nonnull align 8 dereferenceable(24) %91) #3
  %93 = uitofp i64 %92 to double
  %94 = fdiv double %90, %93
  %95 = call double @sqrt(double noundef %94) #3, !tbaa !3
  %96 = load double, ptr %16, align 8, !tbaa !23
  %97 = fdiv double %95, %96
  %98 = getelementptr inbounds nuw %"struct.benchmark::LeastSq", ptr %0, i32 0, i32 1
  store double %97, ptr %98, align 8, !tbaa !33
  call void @llvm.lifetime.end.p0(i64 8, ptr %16) #3
  call void @llvm.lifetime.end.p0(i64 8, ptr %13) #3
  call void @llvm.lifetime.end.p0(i64 8, ptr %10) #3
  call void @llvm.lifetime.end.p0(i64 8, ptr %9) #3
  call void @llvm.lifetime.end.p0(i64 8, ptr %8) #3
  ret void
}