; Function Attrs: mustprogress uwtable
define hidden void @_ZN9benchmark14MinimalLeastSqERKSt6vectorIlSaIlEERKS0_IdSaIdEEPFdlE(ptr dead_on_unwind noalias writable writeonly sret(%"struct.benchmark::LeastSq") align 8 captures(none) %0, ptr noundef nonnull readonly align 8 captures(none) dereferenceable(24) %1, ptr noundef nonnull readonly align 8 captures(none) dereferenceable(24) %2, ptr noundef readonly captures(none) %3) local_unnamed_addr #6 {
  %5 = getelementptr inbounds nuw i8, ptr %1, i64 8
  %6 = load ptr, ptr %5, align 8, !tbaa !13
  %7 = load ptr, ptr %1, align 8, !tbaa !16
  %.not = icmp eq ptr %6, %7
  br i1 %.not, label %.._crit_edge_crit_edge, label %.lr.ph

.._crit_edge_crit_edge:                           ; preds = %4
  %.pre = ptrtoint ptr %6 to i64
  %.pre57 = ptrtoint ptr %7 to i64
  %.pre59 = sub i64 %.pre, %.pre57
  %.pre61 = ashr exact i64 %.pre59, 3
  br label %._crit_edge

._crit_edge.loopexit:                             ; preds = %.lr.ph
  %8 = fdiv double %23, %18
  br label %._crit_edge

._crit_edge:                                      ; preds = %.._crit_edge_crit_edge, %._crit_edge.loopexit
  %.pre-phi62 = phi i64 [ %.pre61, %.._crit_edge_crit_edge ], [ %30, %._crit_edge.loopexit ]
  %9 = phi ptr [ %7, %.._crit_edge_crit_edge ], [ %26, %._crit_edge.loopexit ]
  %10 = phi ptr [ %6, %.._crit_edge_crit_edge ], [ %25, %._crit_edge.loopexit ]
  %.032.lcssa = phi double [ 0.000000e+00, %.._crit_edge_crit_edge ], [ %22, %._crit_edge.loopexit ]
  %11 = phi double [ 0x7FF8000000000000, %.._crit_edge_crit_edge ], [ %8, %._crit_edge.loopexit ]
  %12 = getelementptr inbounds nuw i8, ptr %0, i64 8
  store i64 0, ptr %12, align 8
  %13 = getelementptr inbounds nuw i8, ptr %0, i64 16
  store i32 8, ptr %13, align 8, !tbaa !17
  store double %11, ptr %0, align 8, !tbaa !21
  %.not51 = icmp eq ptr %10, %9
  br i1 %.not51, label %._crit_edge48, label %.lr.ph47

.lr.ph:                                           ; preds = %4, %.lr.ph
  %14 = phi ptr [ %26, %.lr.ph ], [ %7, %4 ]
  %.041 = phi double [ %18, %.lr.ph ], [ 0.000000e+00, %4 ]
  %.03240 = phi double [ %22, %.lr.ph ], [ 0.000000e+00, %4 ]
  %.03539 = phi double [ %23, %.lr.ph ], [ 0.000000e+00, %4 ]
  %.03638 = phi i64 [ %24, %.lr.ph ], [ 0, %4 ]
  %15 = getelementptr inbounds nuw i64, ptr %14, i64 %.03638
  %16 = load i64, ptr %15, align 8, !tbaa !22
  %17 = tail call noundef double %3(i64 noundef %16)
  %18 = tail call double @llvm.fmuladd.f64(double %17, double %17, double %.041)
  %19 = load ptr, ptr %2, align 8, !tbaa !23
  %20 = getelementptr inbounds nuw double, ptr %19, i64 %.03638
  %21 = load double, ptr %20, align 8, !tbaa !26
  %22 = fadd double %.03240, %21
  %23 = tail call double @llvm.fmuladd.f64(double %21, double %17, double %.03539)
  %24 = add nuw i64 %.03638, 1
  %25 = load ptr, ptr %5, align 8, !tbaa !13
  %26 = load ptr, ptr %1, align 8, !tbaa !16
  %27 = ptrtoint ptr %25 to i64
  %28 = ptrtoint ptr %26 to i64
  %29 = sub i64 %27, %28
  %30 = ashr exact i64 %29, 3
  %31 = icmp ult i64 %24, %30
  br i1 %31, label %.lr.ph, label %._crit_edge.loopexit, !llvm.loop !27

._crit_edge48:                                    ; preds = %.lr.ph47, %._crit_edge
  %.034.lcssa = phi double [ 0.000000e+00, %._crit_edge ], [ %47, %.lr.ph47 ]
  %.lcssa = phi i64 [ %.pre-phi62, %._crit_edge ], [ %54, %.lr.ph47 ]
  %32 = uitofp i64 %.lcssa to double
  %33 = fdiv double %.032.lcssa, %32
  %34 = fdiv double %.034.lcssa, %32
  %35 = tail call double @sqrt(double noundef %34) #24, !tbaa !29
  %36 = fdiv double %35, %33
  %37 = getelementptr inbounds nuw i8, ptr %0, i64 8
  store double %36, ptr %37, align 8, !tbaa !31
  ret void

.lr.ph47:                                         ; preds = %._crit_edge, %.lr.ph47
  %38 = phi ptr [ %50, %.lr.ph47 ], [ %9, %._crit_edge ]
  %.03345 = phi i64 [ %48, %.lr.ph47 ], [ 0, %._crit_edge ]
  %.03444 = phi double [ %47, %.lr.ph47 ], [ 0.000000e+00, %._crit_edge ]
  %39 = getelementptr inbounds nuw i64, ptr %38, i64 %.03345
  %40 = load i64, ptr %39, align 8, !tbaa !22
  %41 = tail call noundef double %3(i64 noundef %40)
  %42 = fmul double %11, %41
  %43 = load ptr, ptr %2, align 8, !tbaa !23
  %44 = getelementptr inbounds nuw double, ptr %43, i64 %.03345
  %45 = load double, ptr %44, align 8, !tbaa !26
  %46 = fsub double %45, %42
  %square = fmul double %46, %46
  %47 = fadd double %.03444, %square
  %48 = add nuw i64 %.03345, 1
  %49 = load ptr, ptr %5, align 8, !tbaa !13
  %50 = load ptr, ptr %1, align 8, !tbaa !16
  %51 = ptrtoint ptr %49 to i64
  %52 = ptrtoint ptr %50 to i64
  %53 = sub i64 %51, %52
  %54 = ashr exact i64 %53, 3
  %55 = icmp ult i64 %48, %54
  br i1 %55, label %.lr.ph47, label %._crit_edge48, !llvm.loop !32
}